libmiral.so.2 libmiral2 #MINVER#
 MIRAL_1.0@MIRAL_1.0 1.0.0
 MIRAL_1.1@MIRAL_1.1 1.1.0
 MIRAL_1.2@MIRAL_1.2 1.2.0
 MIRAL_1.3.1@MIRAL_1.3.1 1.3.1
 MIRAL_1.3@MIRAL_1.3 1.3.0
 _ZN5miral10WindowInfo10height_incEN3mir8geometry6detail10IntWrapperINS2_9DeltaYTagEEE@MIRAL_1.0 1.0.0
 _ZN5miral10WindowInfo10max_aspectENS_19WindowSpecification11AspectRatioE@MIRAL_1.0 1.0.0
 _ZN5miral10WindowInfo10max_heightEN3mir8geometry6detail10IntWrapperINS2_9HeightTagEEE@MIRAL_1.0 1.0.0
 _ZN5miral10WindowInfo10min_aspectENS_19WindowSpecification11AspectRatioE@MIRAL_1.0 1.0.0
 _ZN5miral10WindowInfo10min_heightEN3mir8geometry6detail10IntWrapperINS2_9HeightTagEEE@MIRAL_1.0 1.0.0
 _ZN5miral10WindowInfo12remove_childERKNS_6WindowE@MIRAL_1.0 1.0.0
 _ZN5miral10WindowInfo12restore_rectERKN3mir8geometry9RectangleE@MIRAL_1.0 1.0.0
 _ZN5miral10WindowInfo12shell_chromeE14MirShellChrome@MIRAL_1.2 1.2.0
 _ZN5miral10WindowInfo14needs_titlebarE13MirWindowType@MIRAL_1.1 1.1.0
 _ZN5miral10WindowInfo14needs_titlebarE14MirSurfaceType@MIRAL_1.0 1.0.0
 _ZN5miral10WindowInfo15confine_pointerE26MirPointerConfinementState@MIRAL_1.0 1.0.0
 _ZN5miral10WindowInfo21preferred_orientationE18MirOrientationMode@MIRAL_1.0 1.0.0
 _ZN5miral10WindowInfo4nameERKNSt7__cxx1112basic_stringIcSt11char_traitsIcESaIcEEE@MIRAL_1.0 1.0.0
 _ZN5miral10WindowInfo4typeE13MirWindowType@MIRAL_1.1 1.1.0
 _ZN5miral10WindowInfo4typeE14MirSurfaceType@MIRAL_1.0 1.0.0
 _ZN5miral10WindowInfo5stateE14MirWindowState@MIRAL_1.1 1.1.0
 _ZN5miral10WindowInfo5stateE15MirSurfaceState@MIRAL_1.0 1.0.0
 _ZN5miral10WindowInfo6parentERKNS_6WindowE@MIRAL_1.0 1.0.0
 _ZN5miral10WindowInfo8userdataESt10shared_ptrIvE@MIRAL_1.0 1.0.0
 _ZN5miral10WindowInfo9add_childERKNS_6WindowE@MIRAL_1.0 1.0.0
 _ZN5miral10WindowInfo9max_widthEN3mir8geometry6detail10IntWrapperINS2_8WidthTagEEE@MIRAL_1.0 1.0.0
 _ZN5miral10WindowInfo9min_widthEN3mir8geometry6detail10IntWrapperINS2_8WidthTagEEE@MIRAL_1.0 1.0.0
 _ZN5miral10WindowInfo9output_idEN3mir14optional_valueIiEE@MIRAL_1.0 1.0.0
 _ZN5miral10WindowInfo9width_incEN3mir8geometry6detail10IntWrapperINS2_9DeltaXTagEEE@MIRAL_1.0 1.0.0
 _ZN5miral10WindowInfoC1ERKNS_6WindowERKNS_19WindowSpecificationE@MIRAL_1.0 1.0.0
 _ZN5miral10WindowInfoC1ERKS0_@MIRAL_1.0 1.0.0
 _ZN5miral10WindowInfoC1Ev@MIRAL_1.0 1.0.0
 _ZN5miral10WindowInfoC2ERKNS_6WindowERKNS_19WindowSpecificationE@MIRAL_1.0 1.0.0
 _ZN5miral10WindowInfoC2ERKS0_@MIRAL_1.0 1.0.0
 _ZN5miral10WindowInfoC2Ev@MIRAL_1.0 1.0.0
 _ZN5miral10WindowInfoD1Ev@MIRAL_1.0 1.0.0
 _ZN5miral10WindowInfoD2Ev@MIRAL_1.0 1.0.0
 _ZN5miral10WindowInfoaSERKS0_@MIRAL_1.0 1.0.0
 _ZN5miral11CursorThemeC1ERKNSt7__cxx1112basic_stringIcSt11char_traitsIcESaIcEEE@MIRAL_1.0 1.0.0
 _ZN5miral11CursorThemeC2ERKNSt7__cxx1112basic_stringIcSt11char_traitsIcESaIcEEE@MIRAL_1.0 1.0.0
 _ZN5miral11CursorThemeD1Ev@MIRAL_1.0 1.0.0
 _ZN5miral11CursorThemeD2Ev@MIRAL_1.0 1.0.0
 _ZN5miral13SetTerminatorC1ERKSt8functionIFviEE@MIRAL_1.0 1.0.0
 _ZN5miral13SetTerminatorC2ERKSt8functionIFviEE@MIRAL_1.0 1.0.0
 _ZN5miral13SetTerminatorD1Ev@MIRAL_1.0 1.0.0
 _ZN5miral13SetTerminatorD2Ev@MIRAL_1.0 1.0.0
 _ZN5miral14DebugExtension6enableEv@MIRAL_1.0 1.0.0
 _ZN5miral14DebugExtension7disableEv@MIRAL_1.0 1.0.0
 _ZN5miral14DebugExtensionC1ERKS0_@MIRAL_1.0 1.0.0
 _ZN5miral14DebugExtensionC1Ev@MIRAL_1.0 1.0.0
 _ZN5miral14DebugExtensionC2ERKS0_@MIRAL_1.0 1.0.0
 _ZN5miral14DebugExtensionC2Ev@MIRAL_1.0 1.0.0
 _ZN5miral14DebugExtensionaSERKS0_@MIRAL_1.0 1.0.0
 _ZN5miral15AddInitCallbackC1ERKSt8functionIFvvEE@MIRAL_1.0 1.0.0
 _ZN5miral15AddInitCallbackC2ERKSt8functionIFvvEE@MIRAL_1.0 1.0.0
 _ZN5miral15AddInitCallbackD1Ev@MIRAL_1.0 1.0.0
 _ZN5miral15AddInitCallbackD2Ev@MIRAL_1.0 1.0.0
 _ZN5miral15ApplicationInfo10add_windowERKNS_6WindowE@MIRAL_1.0 1.0.0
 _ZN5miral15ApplicationInfo13remove_windowERKNS_6WindowE@MIRAL_1.0 1.0.0
 _ZN5miral15ApplicationInfo8userdataESt10shared_ptrIvE@MIRAL_1.0 1.0.0
 _ZN5miral15ApplicationInfoC1ERKS0_@MIRAL_1.0 1.0.0
 _ZN5miral15ApplicationInfoC1ERKSt10shared_ptrIN3mir5scene7SessionEE@MIRAL_1.0 1.0.0
 _ZN5miral15ApplicationInfoC1Ev@MIRAL_1.0 1.0.0
 _ZN5miral15ApplicationInfoC2ERKS0_@MIRAL_1.0 1.0.0
 _ZN5miral15ApplicationInfoC2ERKSt10shared_ptrIN3mir5scene7SessionEE@MIRAL_1.0 1.0.0
 _ZN5miral15ApplicationInfoC2Ev@MIRAL_1.0 1.0.0
 _ZN5miral15ApplicationInfoD1Ev@MIRAL_1.0 1.0.0
 _ZN5miral15ApplicationInfoD2Ev@MIRAL_1.0 1.0.0
 _ZN5miral15ApplicationInfoaSERKS0_@MIRAL_1.0 1.0.0
 _ZN5miral15WorkspacePolicy26advise_adding_to_workspaceERKSt10shared_ptrINS_9WorkspaceEERKSt6vectorINS_6WindowESaIS7_EE@MIRAL_1.3 1.3.0
 _ZN5miral15WorkspacePolicy30advise_removing_from_workspaceERKSt10shared_ptrINS_9WorkspaceEERKSt6vectorINS_6WindowESaIS7_EE@MIRAL_1.3 1.3.0
 _ZN5miral17AppendEventFilterC1ERKSt8functionIFiPK8MirEventEE@MIRAL_1.0 1.0.0
 _ZN5miral17AppendEventFilterC2ERKSt8functionIFiPK8MirEventEE@MIRAL_1.0 1.0.0
 _ZN5miral17AppendEventFilterclERN3mir6ServerE@MIRAL_1.0 1.0.0
 _ZN5miral17CommandLineOptionC1ERKS0_@MIRAL_1.0 1.0.0
 _ZN5miral17CommandLineOptionC1ESt8functionIFvRKN3mir14optional_valueINSt7__cxx1112basic_stringIcSt11char_traitsIcESaIcEEEEEEERKS9_SG_@MIRAL_1.0 1.0.0
 _ZN5miral17CommandLineOptionC1ESt8functionIFvRKN3mir14optional_valueIbEEEERKNSt7__cxx1112basic_stringIcSt11char_traitsIcESaIcEEESG_@MIRAL_1.0 1.0.0
 _ZN5miral17CommandLineOptionC1ESt8functionIFvRKN3mir14optional_valueIiEEEERKNSt7__cxx1112basic_stringIcSt11char_traitsIcESaIcEEESG_@MIRAL_1.0 1.0.0
 _ZN5miral17CommandLineOptionC1ESt8functionIFvRKNSt7__cxx1112basic_stringIcSt11char_traitsIcESaIcEEEEES9_S9_PKc@MIRAL_1.0 1.0.0
 _ZN5miral17CommandLineOptionC1ESt8functionIFvRKNSt7__cxx1112basic_stringIcSt11char_traitsIcESaIcEEEEES9_S9_S9_@MIRAL_1.0 1.0.0
 _ZN5miral17CommandLineOptionC1ESt8functionIFvbEERKNSt7__cxx1112basic_stringIcSt11char_traitsIcESaIcEEESB_@MIRAL_1.0 1.0.0
 _ZN5miral17CommandLineOptionC1ESt8functionIFvbEERKNSt7__cxx1112basic_stringIcSt11char_traitsIcESaIcEEESB_b@MIRAL_1.0 1.0.0
 _ZN5miral17CommandLineOptionC1ESt8functionIFvdEERKNSt7__cxx1112basic_stringIcSt11char_traitsIcESaIcEEESB_d@MIRAL_1.0 1.0.0
 _ZN5miral17CommandLineOptionC1ESt8functionIFviEERKNSt7__cxx1112basic_stringIcSt11char_traitsIcESaIcEEESB_i@MIRAL_1.0 1.0.0
 _ZN5miral17CommandLineOptionC2ERKS0_@MIRAL_1.0 1.0.0
 _ZN5miral17CommandLineOptionC2ESt8functionIFvRKN3mir14optional_valueINSt7__cxx1112basic_stringIcSt11char_traitsIcESaIcEEEEEEERKS9_SG_@MIRAL_1.0 1.0.0
 _ZN5miral17CommandLineOptionC2ESt8functionIFvRKN3mir14optional_valueIbEEEERKNSt7__cxx1112basic_stringIcSt11char_traitsIcESaIcEEESG_@MIRAL_1.0 1.0.0
 _ZN5miral17CommandLineOptionC2ESt8functionIFvRKN3mir14optional_valueIiEEEERKNSt7__cxx1112basic_stringIcSt11char_traitsIcESaIcEEESG_@MIRAL_1.0 1.0.0
 _ZN5miral17CommandLineOptionC2ESt8functionIFvRKNSt7__cxx1112basic_stringIcSt11char_traitsIcESaIcEEEEES9_S9_PKc@MIRAL_1.0 1.0.0
 _ZN5miral17CommandLineOptionC2ESt8functionIFvRKNSt7__cxx1112basic_stringIcSt11char_traitsIcESaIcEEEEES9_S9_S9_@MIRAL_1.0 1.0.0
 _ZN5miral17CommandLineOptionC2ESt8functionIFvbEERKNSt7__cxx1112basic_stringIcSt11char_traitsIcESaIcEEESB_@MIRAL_1.0 1.0.0
 _ZN5miral17CommandLineOptionC2ESt8functionIFvbEERKNSt7__cxx1112basic_stringIcSt11char_traitsIcESaIcEEESB_b@MIRAL_1.0 1.0.0
 _ZN5miral17CommandLineOptionC2ESt8functionIFvdEERKNSt7__cxx1112basic_stringIcSt11char_traitsIcESaIcEEESB_d@MIRAL_1.0 1.0.0
 _ZN5miral17CommandLineOptionC2ESt8functionIFviEERKNSt7__cxx1112basic_stringIcSt11char_traitsIcESaIcEEESB_i@MIRAL_1.0 1.0.0
 _ZN5miral17CommandLineOptionD1Ev@MIRAL_1.0 1.0.0
 _ZN5miral17CommandLineOptionD2Ev@MIRAL_1.0 1.0.0
 _ZN5miral17CommandLineOptionaSERKS0_@MIRAL_1.0 1.0.0
 _ZN5miral18WindowManagerTools10raise_treeERKNS_6WindowE@MIRAL_1.0 1.0.0
 _ZN5miral18WindowManagerTools11drag_windowERKNS_6WindowEN3mir8geometry12DisplacementE@MIRAL_1.2 1.2.0
 _ZN5miral18WindowManagerTools11force_closeERKNS_6WindowE@MIRAL_1.0 1.0.0
 _ZN5miral18WindowManagerTools13modify_windowERKNS_6WindowERKNS_19WindowSpecificationE@MIRAL_1.0 1.0.0
 _ZN5miral18WindowManagerTools13modify_windowERNS_10WindowInfoERKNS_19WindowSpecificationE@MIRAL_1.0 1.0.0
 _ZN5miral18WindowManagerTools14active_displayEv@MIRAL_1.0 1.0.0
 _ZN5miral18WindowManagerTools16create_workspaceEv@MIRAL_1.3 1.3.0
 _ZN5miral18WindowManagerTools16find_applicationERKSt8functionIFbRKNS_15ApplicationInfoEEE@MIRAL_1.0 1.0.0
 _ZN5miral18WindowManagerTools17invoke_under_lockERKSt8functionIFvvEE@MIRAL_1.0 1.0.0
 _ZN5miral18WindowManagerTools18drag_active_windowEN3mir8geometry12DisplacementE@MIRAL_1.0 1.0.0
 _ZN5miral18WindowManagerTools19ask_client_to_closeERKNS_6WindowE@MIRAL_1.0 1.0.0
 _ZN5miral18WindowManagerTools20for_each_applicationERKSt8functionIFvRNS_15ApplicationInfoEEE@MIRAL_1.0 1.0.0
 _ZN5miral18WindowManagerTools20select_active_windowERKNS_6WindowE@MIRAL_1.0 1.0.0
 _ZN5miral18WindowManagerTools21add_tree_to_workspaceERKNS_6WindowERKSt10shared_ptrINS_9WorkspaceEE@MIRAL_1.3 1.3.0
 _ZN5miral18WindowManagerTools22focus_next_applicationEv@MIRAL_1.0 1.0.0
 _ZN5miral18WindowManagerTools26remove_tree_from_workspaceERKNS_6WindowERKSt10shared_ptrINS_9WorkspaceEE@MIRAL_1.3 1.3.0
 _ZN5miral18WindowManagerTools28for_each_window_in_workspaceERKSt10shared_ptrINS_9WorkspaceEERKSt8functionIFvRKNS_6WindowEEE@MIRAL_1.3 1.3.0
 _ZN5miral18WindowManagerTools29focus_next_within_applicationEv@MIRAL_1.0 1.0.0
 _ZN5miral18WindowManagerTools29focus_prev_within_applicationEv@MIRAL_1.3 1.3.0
 _ZN5miral18WindowManagerTools29for_each_workspace_containingERKNS_6WindowERKSt8functionIFvRKSt10shared_ptrINS_9WorkspaceEEEE@MIRAL_1.3 1.3.0
 _ZN5miral18WindowManagerTools35move_workspace_content_to_workspaceERKSt10shared_ptrINS_9WorkspaceEES5_@MIRAL_1.3 1.3.0
 _ZN5miral18WindowManagerToolsC1EPNS_32WindowManagerToolsImplementationE@MIRAL_1.0 1.0.0
 _ZN5miral18WindowManagerToolsC1ERKS0_@MIRAL_1.0 1.0.0
 _ZN5miral18WindowManagerToolsC2EPNS_32WindowManagerToolsImplementationE@MIRAL_1.0 1.0.0
 _ZN5miral18WindowManagerToolsC2ERKS0_@MIRAL_1.0 1.0.0
 _ZN5miral18WindowManagerToolsD1Ev@MIRAL_1.0 1.0.0
 _ZN5miral18WindowManagerToolsD2Ev@MIRAL_1.0 1.0.0
 _ZN5miral18WindowManagerToolsaSERKS0_@MIRAL_1.0 1.0.0
 _ZN5miral19WindowSpecification10height_incEv@MIRAL_1.0 1.0.0
 _ZN5miral19WindowSpecification10input_modeEv@MIRAL_1.0 1.0.0
 _ZN5miral19WindowSpecification10max_aspectEv@MIRAL_1.0 1.0.0
 _ZN5miral19WindowSpecification10max_heightEv@MIRAL_1.0 1.0.0
 _ZN5miral19WindowSpecification10min_aspectEv@MIRAL_1.0 1.0.0
 _ZN5miral19WindowSpecification10min_heightEv@MIRAL_1.0 1.0.0
 _ZN5miral19WindowSpecification11input_shapeEv@MIRAL_1.0 1.0.0
 _ZN5miral19WindowSpecification12shell_chromeEv@MIRAL_1.0 1.0.0
 _ZN5miral19WindowSpecification15confine_pointerEv@MIRAL_1.0 1.0.0
 _ZN5miral19WindowSpecification15placement_hintsEv@MIRAL_1.0 1.0.0
 _ZN5miral19WindowSpecification21preferred_orientationEv@MIRAL_1.0 1.0.0
 _ZN5miral19WindowSpecification24window_placement_gravityEv@MIRAL_1.0 1.0.0
 _ZN5miral19WindowSpecification25aux_rect_placement_offsetEv@MIRAL_1.0 1.0.0
 _ZN5miral19WindowSpecification26aux_rect_placement_gravityEv@MIRAL_1.0 1.0.0
 _ZN5miral19WindowSpecification4nameB5cxx11Ev@MIRAL_1.0 1.0.0
 _ZN5miral19WindowSpecification4sizeEv@MIRAL_1.0 1.0.0
 _ZN5miral19WindowSpecification4typeEv@MIRAL_1.0 1.0.0
 _ZN5miral19WindowSpecification5stateEv@MIRAL_1.0 1.0.0
 _ZN5miral19WindowSpecification6parentEv@MIRAL_1.0 1.0.0
 _ZN5miral19WindowSpecification8aux_rectEv@MIRAL_1.0 1.0.0
 _ZN5miral19WindowSpecification8top_leftEv@MIRAL_1.0 1.0.0
 _ZN5miral19WindowSpecification8userdataEv@MIRAL_1.0 1.0.0
 _ZN5miral19WindowSpecification9max_widthEv@MIRAL_1.0 1.0.0
 _ZN5miral19WindowSpecification9min_widthEv@MIRAL_1.0 1.0.0
 _ZN5miral19WindowSpecification9output_idEv@MIRAL_1.0 1.0.0
 _ZN5miral19WindowSpecification9width_incEv@MIRAL_1.0 1.0.0
 _ZN5miral19WindowSpecificationC1ERKN3mir5scene25SurfaceCreationParametersE@MIRAL_1.0 1.0.0
 _ZN5miral19WindowSpecificationC1ERKN3mir5shell20SurfaceSpecificationE@MIRAL_1.0 1.0.0
 _ZN5miral19WindowSpecificationC1ERKS0_@MIRAL_1.0 1.0.0
 _ZN5miral19WindowSpecificationC1Ev@MIRAL_1.0 1.0.0
 _ZN5miral19WindowSpecificationC2ERKN3mir5scene25SurfaceCreationParametersE@MIRAL_1.0 1.0.0
 _ZN5miral19WindowSpecificationC2ERKN3mir5shell20SurfaceSpecificationE@MIRAL_1.0 1.0.0
 _ZN5miral19WindowSpecificationC2ERKS0_@MIRAL_1.0 1.0.0
 _ZN5miral19WindowSpecificationC2Ev@MIRAL_1.0 1.0.0
 _ZN5miral19WindowSpecificationD1Ev@MIRAL_1.0 1.0.0
 _ZN5miral19WindowSpecificationD2Ev@MIRAL_1.0 1.0.0
 _ZN5miral19WindowSpecificationaSERKS0_@MIRAL_1.0 1.0.0
 _ZN5miral20ActiveOutputsMonitor12add_listenerEPNS_21ActiveOutputsListenerE@MIRAL_1.0 1.0.0
 _ZN5miral20ActiveOutputsMonitor15delete_listenerEPNS_21ActiveOutputsListenerE@MIRAL_1.0 1.0.0
 _ZN5miral20ActiveOutputsMonitorC1ERKS0_@MIRAL_1.0 1.0.0
 _ZN5miral20ActiveOutputsMonitorC1Ev@MIRAL_1.0 1.0.0
 _ZN5miral20ActiveOutputsMonitorC2ERKS0_@MIRAL_1.0 1.0.0
 _ZN5miral20ActiveOutputsMonitorC2Ev@MIRAL_1.0 1.0.0
 _ZN5miral20ActiveOutputsMonitorD1Ev@MIRAL_1.0 1.0.0
 _ZN5miral20ActiveOutputsMonitorD2Ev@MIRAL_1.0 1.0.0
 _ZN5miral20ActiveOutputsMonitoraSERKS0_@MIRAL_1.0 1.0.0
 _ZN5miral20ActiveOutputsMonitorclERN3mir6ServerE@MIRAL_1.0 1.0.0
 _ZN5miral21ActiveOutputsListener17advise_output_endEv@MIRAL_1.0 1.0.0
 _ZN5miral21ActiveOutputsListener19advise_output_beginEv@MIRAL_1.0 1.0.0
 _ZN5miral21ActiveOutputsListener20advise_output_createERKNS_6OutputE@MIRAL_1.0 1.0.0
 _ZN5miral21ActiveOutputsListener20advise_output_deleteERKNS_6OutputE@MIRAL_1.0 1.0.0
 _ZN5miral21ActiveOutputsListener20advise_output_updateERKNS_6OutputES3_@MIRAL_1.0 1.0.0
 _ZN5miral21SetCommandLineHandlerC1ERKSt8functionIFviPKPKcEE@MIRAL_1.0 1.0.0
 _ZN5miral21SetCommandLineHandlerC2ERKSt8functionIFviPKPKcEE@MIRAL_1.0 1.0.0
 _ZN5miral21SetCommandLineHandlerD1Ev@MIRAL_1.0 1.0.0
 _ZN5miral21SetCommandLineHandlerD2Ev@MIRAL_1.0 1.0.0
 _ZN5miral21StartupInternalClientC1ENSt7__cxx1112basic_stringIcSt11char_traitsIcESaIcEEESt8functionIFvN3mir6client10ConnectionEEES7_IFvSt8weak_ptrINS8_5scene7SessionEEEE@MIRAL_1.2 1.2.0
 _ZN5miral21StartupInternalClientC1ENSt7__cxx1112basic_stringIcSt11char_traitsIcESaIcEEESt8functionIFvNS_7toolkit10ConnectionEEES7_IFvSt8weak_ptrIN3mir5scene7SessionEEEE@MIRAL_1.0 1.0.0
 _ZN5miral21StartupInternalClientC2ENSt7__cxx1112basic_stringIcSt11char_traitsIcESaIcEEESt8functionIFvN3mir6client10ConnectionEEES7_IFvSt8weak_ptrINS8_5scene7SessionEEEE@MIRAL_1.2 1.2.0
 _ZN5miral21StartupInternalClientD1Ev@MIRAL_1.0 1.0.0
 _ZN5miral21StartupInternalClientD2Ev@MIRAL_1.0 1.0.0
 _ZN5miral21StartupInternalClientclERN3mir6ServerE@MIRAL_1.0 1.0.0
 _ZN5miral22ApplicationCredentialsC1ERKN3mir8frontend18SessionCredentialsE@MIRAL_1.0 1.0.0
 _ZN5miral22ApplicationCredentialsC2ERKN3mir8frontend18SessionCredentialsE@MIRAL_1.0 1.0.0
 _ZN5miral22InternalClientLauncherC1Ev@MIRAL_1.0 1.0.0
 _ZN5miral22InternalClientLauncherC2Ev@MIRAL_1.0 1.0.0
 _ZN5miral22InternalClientLauncherD1Ev@MIRAL_1.0 1.0.0
 _ZN5miral22InternalClientLauncherD2Ev@MIRAL_1.0 1.0.0
 _ZN5miral22InternalClientLauncherclERN3mir6ServerE@MIRAL_1.0 1.0.0
 _ZN5miral22WindowManagementPolicy10advise_endEv@MIRAL_1.0 1.0.0
 _ZN5miral22WindowManagementPolicy12advise_beginEv@MIRAL_1.0 1.0.0
 _ZN5miral22WindowManagementPolicy12advise_raiseERKSt6vectorINS_6WindowESaIS2_EE@MIRAL_1.0 1.0.0
 _ZN5miral22WindowManagementPolicy13advise_resizeERKNS_10WindowInfoERKN3mir8geometry4SizeE@MIRAL_1.0 1.0.0
 _ZN5miral22WindowManagementPolicy14advise_move_toERKNS_10WindowInfoEN3mir8geometry5PointE@MIRAL_1.0 1.0.0
 _ZN5miral22WindowManagementPolicy14advise_new_appERNS_15ApplicationInfoE@MIRAL_1.0 1.0.0
 _ZN5miral22WindowManagementPolicy17advise_delete_appERKNS_15ApplicationInfoE@MIRAL_1.0 1.0.0
 _ZN5miral22WindowManagementPolicy17advise_focus_lostERKNS_10WindowInfoE@MIRAL_1.0 1.0.0
 _ZN5miral22WindowManagementPolicy17advise_new_windowERKNS_10WindowInfoE@MIRAL_1.0 1.0.0
 _ZN5miral22WindowManagementPolicy19advise_focus_gainedERKNS_10WindowInfoE@MIRAL_1.0 1.0.0
 _ZN5miral22WindowManagementPolicy19advise_state_changeERKNS_10WindowInfoE14MirWindowState@MIRAL_1.1 1.1.0
 _ZN5miral22WindowManagementPolicy19advise_state_changeERKNS_10WindowInfoE15MirSurfaceState@MIRAL_1.0 1.0.0
 _ZN5miral22WindowManagementPolicy20advise_delete_windowERKNS_10WindowInfoE@MIRAL_1.0 1.0.0
 _ZN5miral23equivalent_display_areaERKNS_6OutputES2_@MIRAL_1.0 1.0.0
 _ZN5miral24SetWindowManagmentPolicyC1ERKSt8functionIFSt10unique_ptrINS_22WindowManagementPolicyESt14default_deleteIS3_EERKNS_18WindowManagerToolsEEE@MIRAL_1.0 1.0.0
 _ZN5miral24SetWindowManagmentPolicyD1Ev@MIRAL_1.0 1.0.0
 _ZN5miral24SetWindowManagmentPolicyD2Ev@MIRAL_1.0 1.0.0
 _ZN5miral24apply_lifecycle_state_toERKSt10shared_ptrIN3mir5scene7SessionEE17MirLifecycleState@MIRAL_1.0 1.0.0
 _ZN5miral25SetWindowManagementPolicyC1ERKSt8functionIFSt10unique_ptrINS_22WindowManagementPolicyESt14default_deleteIS3_EERKNS_18WindowManagerToolsEEE@MIRAL_1.3.1 1.3.1
 _ZN5miral25SetWindowManagementPolicyC2ERKSt8functionIFSt10unique_ptrINS_22WindowManagementPolicyESt14default_deleteIS3_EERKNS_18WindowManagerToolsEEE@MIRAL_1.3.1 1.3.1
 _ZN5miral25SetWindowManagementPolicyD1Ev@MIRAL_1.3.1 1.3.1
 _ZN5miral25SetWindowManagementPolicyD2Ev@MIRAL_1.3.1 1.3.1
 _ZN5miral28CanonicalWindowManagerPolicy16place_new_windowERKNS_15ApplicationInfoERKNS_19WindowSpecificationE@MIRAL_1.1 1.1.0
 _ZN5miral28CanonicalWindowManagerPolicy17place_new_surfaceERKNS_15ApplicationInfoERKNS_19WindowSpecificationE@MIRAL_1.0 1.0.0
 _ZN5miral28CanonicalWindowManagerPolicy19advise_focus_gainedERKNS_10WindowInfoE@MIRAL_1.0 1.0.0
 _ZN5miral28CanonicalWindowManagerPolicy19handle_raise_windowERNS_10WindowInfoE@MIRAL_1.0 1.0.0
 _ZN5miral28CanonicalWindowManagerPolicy19handle_window_readyERNS_10WindowInfoE@MIRAL_1.0 1.0.0
 _ZN5miral28CanonicalWindowManagerPolicy20handle_modify_windowERNS_10WindowInfoERKNS_19WindowSpecificationE@MIRAL_1.0 1.0.0
 _ZN5miral28CanonicalWindowManagerPolicy22confirm_inherited_moveERKNS_10WindowInfoEN3mir8geometry12DisplacementE@MIRAL_1.0 1.0.0
 _ZN5miral28CanonicalWindowManagerPolicyC1ERKNS_18WindowManagerToolsE@MIRAL_1.0 1.0.0
 _ZN5miral28CanonicalWindowManagerPolicyC2ERKNS_18WindowManagerToolsE@MIRAL_1.0 1.0.0
 _ZN5miral29BasicSetApplicationAuthorizerC1ERKSt8functionIFSt10shared_ptrINS_21ApplicationAuthorizerEEvEE@MIRAL_1.0 1.0.0
 _ZN5miral29BasicSetApplicationAuthorizerC2ERKSt8functionIFSt10shared_ptrINS_21ApplicationAuthorizerEEvEE@MIRAL_1.0 1.0.0
 _ZN5miral29BasicSetApplicationAuthorizerD1Ev@MIRAL_1.0 1.0.0
 _ZN5miral29BasicSetApplicationAuthorizerD2Ev@MIRAL_1.0 1.0.0
 _ZN5miral29BasicSetApplicationAuthorizerclERN3mir6ServerE@MIRAL_1.0 1.0.0
 _ZN5miral29display_configuration_optionsERN3mir6ServerE@MIRAL_1.0 1.0.0
 _ZN5miral4killERKSt10shared_ptrIN3mir5scene7SessionEEi@MIRAL_1.0 1.0.0
 _ZN5miral6Keymap10set_keymapERKNSt7__cxx1112basic_stringIcSt11char_traitsIcESaIcEEE@MIRAL_1.0 1.0.0
 _ZN5miral6KeymapC1ERKNSt7__cxx1112basic_stringIcSt11char_traitsIcESaIcEEE@MIRAL_1.0 1.0.0
 _ZN5miral6KeymapC1ERKS0_@MIRAL_1.0 1.0.0
 _ZN5miral6KeymapC1Ev@MIRAL_1.0 1.0.0
 _ZN5miral6KeymapC2ERKNSt7__cxx1112basic_stringIcSt11char_traitsIcESaIcEEE@MIRAL_1.0 1.0.0
 _ZN5miral6KeymapC2ERKS0_@MIRAL_1.0 1.0.0
 _ZN5miral6KeymapC2Ev@MIRAL_1.0 1.0.0
 _ZN5miral6KeymapD1Ev@MIRAL_1.0 1.0.0
 _ZN5miral6KeymapD2Ev@MIRAL_1.0 1.0.0
 _ZN5miral6KeymapaSERKS0_@MIRAL_1.0 1.0.0
 _ZN5miral6OutputC1ERKN3mir8graphics26DisplayConfigurationOutputE@MIRAL_1.0 1.0.0
 _ZN5miral6OutputC1ERKS0_@MIRAL_1.0 1.0.0
 _ZN5miral6OutputC2ERKN3mir8graphics26DisplayConfigurationOutputE@MIRAL_1.0 1.0.0
 _ZN5miral6OutputC2ERKS0_@MIRAL_1.0 1.0.0
 _ZN5miral6OutputD1Ev@MIRAL_1.0 1.0.0
 _ZN5miral6OutputD2Ev@MIRAL_1.0 1.0.0
 _ZN5miral6OutputaSERKS0_@MIRAL_1.0 1.0.0
 _ZN5miral6Window6resizeERKN3mir8geometry4SizeE@MIRAL_1.0 1.0.0
 _ZN5miral6Window7move_toEN3mir8geometry5PointE@MIRAL_1.0 1.0.0
 _ZN5miral6WindowC1ERKSt10shared_ptrIN3mir5scene7SessionEERKS1_INS3_7SurfaceEE@MIRAL_1.0 1.0.0
 _ZN5miral6WindowC1Ev@MIRAL_1.0 1.0.0
 _ZN5miral6WindowC2ERKSt10shared_ptrIN3mir5scene7SessionEERKS1_INS3_7SurfaceEE@MIRAL_1.0 1.0.0
 _ZN5miral6WindowC2Ev@MIRAL_1.0 1.0.0
 _ZN5miral6WindowD1Ev@MIRAL_1.0 1.0.0
 _ZN5miral6WindowD2Ev@MIRAL_1.0 1.0.0
 _ZN5miral6pid_ofERKSt10shared_ptrIN3mir5scene7SessionEE@MIRAL_1.0 1.0.0
 _ZN5miral7name_ofB5cxx11ERKSt10shared_ptrIN3mir5scene7SessionEE@MIRAL_1.0 1.0.0
 _ZN5miral9MirRunner17add_stop_callbackERKSt8functionIFvvEE@MIRAL_1.0 1.0.0
 _ZN5miral9MirRunner18add_start_callbackERKSt8functionIFvvEE@MIRAL_1.0 1.0.0
 _ZN5miral9MirRunner21set_exception_handlerERKSt8functionIFvvEE@MIRAL_1.0 1.0.0
 _ZN5miral9MirRunner4stopEv@MIRAL_1.0 1.0.0
 _ZN5miral9MirRunner8run_withESt16initializer_listISt8functionIFvRN3mir6ServerEEEE@MIRAL_1.0 1.0.0
 _ZN5miral9MirRunnerC1EiPPKc@MIRAL_1.0 1.0.0
 _ZN5miral9MirRunnerC1EiPPKcS2_@MIRAL_1.0 1.0.0
 _ZN5miral9MirRunnerC2EiPPKc@MIRAL_1.0 1.0.0
 _ZN5miral9MirRunnerC2EiPPKcS2_@MIRAL_1.0 1.0.0
 _ZN5miral9MirRunnerD1Ev@MIRAL_1.0 1.0.0
 _ZN5miral9MirRunnerD2Ev@MIRAL_1.0 1.0.0
 _ZN5miraleqERKNS_6Output14PhysicalSizeMMES3_@MIRAL_1.0 1.0.0
 _ZN5miraleqERKNS_6WindowERKSt10shared_ptrIN3mir5scene7SurfaceEE@MIRAL_1.0 1.0.0
 _ZN5miraleqERKNS_6WindowES2_@MIRAL_1.0 1.0.0
 _ZN5miraleqERKSt10shared_ptrIN3mir5scene7SurfaceEERKNS_6WindowE@MIRAL_1.0 1.0.0
 _ZN5miralltERKNS_6WindowES2_@MIRAL_1.0 1.3.0
 _ZNK5miral10WindowInfo10height_incEv@MIRAL_1.0 1.0.0
 _ZNK5miral10WindowInfo10is_visibleEv@MIRAL_1.0 1.0.0
 _ZNK5miral10WindowInfo10max_aspectEv@MIRAL_1.0 1.0.0
 _ZNK5miral10WindowInfo10max_heightEv@MIRAL_1.0 1.0.0
 _ZNK5miral10WindowInfo10min_aspectEv@MIRAL_1.0 1.0.0
 _ZNK5miral10WindowInfo10min_heightEv@MIRAL_1.0 1.0.0
 _ZNK5miral10WindowInfo12can_morph_toE13MirWindowType@MIRAL_1.1 1.1.0
 _ZNK5miral10WindowInfo12can_morph_toE14MirSurfaceType@MIRAL_1.0 1.0.0
 _ZNK5miral10WindowInfo12restore_rectEv@MIRAL_1.0 1.0.0
 _ZNK5miral10WindowInfo12shell_chromeEv@MIRAL_1.2 1.2.0
 _ZNK5miral10WindowInfo13can_be_activeEv@MIRAL_1.0 1.0.0
 _ZNK5miral10WindowInfo13has_output_idEv@MIRAL_1.0 1.0.0
 _ZNK5miral10WindowInfo15confine_pointerEv@MIRAL_1.0 1.0.0
 _ZNK5miral10WindowInfo16constrain_resizeERN3mir8geometry5PointERNS2_4SizeE@MIRAL_1.0 1.0.0
 _ZNK5miral10WindowInfo16must_have_parentEv@MIRAL_1.0 1.0.0
 _ZNK5miral10WindowInfo20must_not_have_parentEv@MIRAL_1.0 1.0.0
 _ZNK5miral10WindowInfo21preferred_orientationEv@MIRAL_1.0 1.0.0
 _ZNK5miral10WindowInfo4nameB5cxx11Ev@MIRAL_1.0 1.0.0
 _ZNK5miral10WindowInfo4typeEv@MIRAL_1.0 1.0.0
 _ZNK5miral10WindowInfo5stateEv@MIRAL_1.0 1.0.0
 _ZNK5miral10WindowInfo6parentEv@MIRAL_1.0 1.0.0
 _ZNK5miral10WindowInfo6windowEv@MIRAL_1.0 1.0.0
 _ZNK5miral10WindowInfo8childrenEv@MIRAL_1.0 1.0.0
 _ZNK5miral10WindowInfo8userdataEv@MIRAL_1.0 1.0.0
 _ZNK5miral10WindowInfo9max_widthEv@MIRAL_1.0 1.0.0
 _ZNK5miral10WindowInfo9min_widthEv@MIRAL_1.0 1.0.0
 _ZNK5miral10WindowInfo9output_idEv@MIRAL_1.0 1.0.0
 _ZNK5miral10WindowInfo9width_incEv@MIRAL_1.0 1.0.0
 _ZNK5miral11CursorThemeclERN3mir6ServerE@MIRAL_1.0 1.0.0
 _ZNK5miral13SetTerminatorclERN3mir6ServerE@MIRAL_1.0 1.0.0
 _ZNK5miral14DebugExtensionclERN3mir6ServerE@MIRAL_1.0 1.0.0
 _ZNK5miral15AddInitCallbackclERN3mir6ServerE@MIRAL_1.0 1.0.0
 _ZNK5miral15ApplicationInfo11applicationEv@MIRAL_1.0 1.0.0
 _ZNK5miral15ApplicationInfo4nameB5cxx11Ev@MIRAL_1.0 1.0.0
 _ZNK5miral15ApplicationInfo7windowsEv@MIRAL_1.0 1.0.0
 _ZNK5miral15ApplicationInfo8userdataEv@MIRAL_1.0 1.0.0
 _ZNK5miral17CommandLineOptionclERN3mir6ServerE@MIRAL_1.0 1.0.0
 _ZNK5miral18WindowManagerTools13active_windowEv@MIRAL_1.0 1.0.0
 _ZNK5miral18WindowManagerTools13id_for_windowB5cxx11ERKNS_6WindowE@MIRAL_1.0 1.0.0
 _ZNK5miral18WindowManagerTools18count_applicationsEv@MIRAL_1.0 1.0.0
 _ZNK5miral18WindowManagerTools18info_for_window_idERKNSt7__cxx1112basic_stringIcSt11char_traitsIcESaIcEEE@MIRAL_1.0 1.0.0
 _ZNK5miral18WindowManagerTools24place_and_size_for_stateERNS_19WindowSpecificationERKNS_10WindowInfoE@MIRAL_1.0 1.0.0
 _ZNK5miral18WindowManagerTools8info_forERKNS_6WindowE@MIRAL_1.0 1.0.0
 _ZNK5miral18WindowManagerTools8info_forERKSt8weak_ptrIN3mir5scene7SessionEE@MIRAL_1.0 1.0.0
 _ZNK5miral18WindowManagerTools8info_forERKSt8weak_ptrIN3mir5scene7SurfaceEE@MIRAL_1.0 1.0.0
 _ZNK5miral18WindowManagerTools9window_atEN3mir8geometry5PointE@MIRAL_1.0 1.0.0
 _ZNK5miral19WindowSpecification10height_incEv@MIRAL_1.0 1.0.0
 _ZNK5miral19WindowSpecification10input_modeEv@MIRAL_1.0 1.0.0
 _ZNK5miral19WindowSpecification10max_aspectEv@MIRAL_1.0 1.0.0
 _ZNK5miral19WindowSpecification10max_heightEv@MIRAL_1.0 1.0.0
 _ZNK5miral19WindowSpecification10min_aspectEv@MIRAL_1.0 1.0.0
 _ZNK5miral19WindowSpecification10min_heightEv@MIRAL_1.0 1.0.0
 _ZNK5miral19WindowSpecification11input_shapeEv@MIRAL_1.0 1.0.0
 _ZNK5miral19WindowSpecification12shell_chromeEv@MIRAL_1.0 1.0.0
 _ZNK5miral19WindowSpecification15confine_pointerEv@MIRAL_1.0 1.0.0
 _ZNK5miral19WindowSpecification15placement_hintsEv@MIRAL_1.0 1.0.0
 _ZNK5miral19WindowSpecification21preferred_orientationEv@MIRAL_1.0 1.0.0
 _ZNK5miral19WindowSpecification24window_placement_gravityEv@MIRAL_1.0 1.0.0
 _ZNK5miral19WindowSpecification25aux_rect_placement_offsetEv@MIRAL_1.0 1.0.0
 _ZNK5miral19WindowSpecification26aux_rect_placement_gravityEv@MIRAL_1.0 1.0.0
 _ZNK5miral19WindowSpecification4nameB5cxx11Ev@MIRAL_1.0 1.0.0
 _ZNK5miral19WindowSpecification4sizeEv@MIRAL_1.0 1.0.0
 _ZNK5miral19WindowSpecification4typeEv@MIRAL_1.0 1.0.0
 _ZNK5miral19WindowSpecification5stateEv@MIRAL_1.0 1.0.0
 _ZNK5miral19WindowSpecification6parentEv@MIRAL_1.0 1.0.0
 _ZNK5miral19WindowSpecification6updateERN3mir5scene25SurfaceCreationParametersE@MIRAL_1.0 1.0.0
 _ZNK5miral19WindowSpecification8aux_rectEv@MIRAL_1.0 1.0.0
 _ZNK5miral19WindowSpecification8top_leftEv@MIRAL_1.0 1.0.0
 _ZNK5miral19WindowSpecification8userdataEv@MIRAL_1.0 1.0.0
 _ZNK5miral19WindowSpecification9max_widthEv@MIRAL_1.0 1.0.0
 _ZNK5miral19WindowSpecification9min_widthEv@MIRAL_1.0 1.0.0
 _ZNK5miral19WindowSpecification9output_idEv@MIRAL_1.0 1.0.0
 _ZNK5miral19WindowSpecification9width_incEv@MIRAL_1.0 1.0.0
 _ZNK5miral20ActiveOutputsMonitor15process_outputsERKSt8functionIFvRKSt6vectorINS_6OutputESaIS3_EEEE@MIRAL_1.0 1.0.0
 _ZNK5miral20WindowManagerOptionsclERN3mir6ServerE@MIRAL_1.0 1.0.0
 _ZNK5miral21SetCommandLineHandlerclERN3mir6ServerE@MIRAL_1.0 1.0.0
 _ZNK5miral22ApplicationCredentials3gidEv@MIRAL_1.0 1.0.0
 _ZNK5miral22ApplicationCredentials3pidEv@MIRAL_1.0 1.0.0
 _ZNK5miral22ApplicationCredentials3uidEv@MIRAL_1.0 1.0.0
 _ZNK5miral22InternalClientLauncher6launchERKNSt7__cxx1112basic_stringIcSt11char_traitsIcESaIcEEERKSt8functionIFvN3mir6client10ConnectionEEERKS9_IFvSt8weak_ptrINSA_5scene7SessionEEEE@MIRAL_1.2 1.2.0
 _ZNK5miral22InternalClientLauncher6launchERKNSt7__cxx1112basic_stringIcSt11char_traitsIcESaIcEEERKSt8functionIFvNS_7toolkit10ConnectionEEERKS9_IFvSt8weak_ptrIN3mir5scene7SessionEEEE@MIRAL_1.0 1.0.0
 _ZNK5miral24SetWindowManagmentPolicyclERN3mir6ServerE@MIRAL_1.0 1.0.0
 _ZNK5miral25SetWindowManagementPolicyclERN3mir6ServerE@MIRAL_1.3.1 1.3.1
 _ZNK5miral29BasicSetApplicationAuthorizer26the_application_authorizerEv@MIRAL_1.0 1.0.0
 _ZNK5miral6KeymapclERN3mir6ServerE@MIRAL_1.0 1.0.0
 _ZNK5miral6Output10power_modeEv@MIRAL_1.0 1.0.0
 _ZNK5miral6Output11form_factorEv@MIRAL_1.0 1.0.0
 _ZNK5miral6Output11orientationEv@MIRAL_1.0 1.0.0
 _ZNK5miral6Output12pixel_formatEv@MIRAL_1.0 1.0.0
 _ZNK5miral6Output12refresh_rateEv@MIRAL_1.0 1.0.0
 _ZNK5miral6Output14is_same_outputERKS0_@MIRAL_1.0 1.0.0
 _ZNK5miral6Output16physical_size_mmEv@MIRAL_1.0 1.0.0
 _ZNK5miral6Output4typeEv@MIRAL_1.0 1.0.0
 _ZNK5miral6Output4usedEv@MIRAL_1.0 1.0.0
 _ZNK5miral6Output5scaleEv@MIRAL_1.0 1.0.0
 _ZNK5miral6Output5validEv@MIRAL_1.0 1.0.0
 _ZNK5miral6Output7extentsEv@MIRAL_1.0 1.0.0
 _ZNK5miral6Output9connectedEv@MIRAL_1.0 1.0.0
 _ZNK5miral6Window11applicationEv@MIRAL_1.0 1.0.0
 _ZNK5miral6Window4sizeEv@MIRAL_1.0 1.0.0
 _ZNK5miral6Window8top_leftEv@MIRAL_1.0 1.0.0
 _ZNK5miral6WindowcvSt10shared_ptrIN3mir5scene7SurfaceEEEv@MIRAL_1.0 1.0.0
 _ZNK5miral6WindowcvSt8weak_ptrIN3mir5scene7SurfaceEEEv@MIRAL_1.0 1.0.0
 _ZNK5miral6WindowcvbEv@MIRAL_1.0 1.0.0
 _ZTIN5miral15WorkspacePolicyE@MIRAL_1.3 1.3.0
 _ZTIN5miral21ActiveOutputsListenerE@MIRAL_1.0 1.0.0
 _ZTIN5miral21ApplicationAuthorizerE@MIRAL_1.0 1.2.0
 _ZTIN5miral22ApplicationAuthorizer1E@MIRAL_1.2 1.2.0
 _ZTIN5miral22WindowManagementPolicyE@MIRAL_1.0 1.0.0
 _ZTIN5miral28CanonicalWindowManagerPolicyE@MIRAL_1.0 1.0.0
 _ZTVN5miral15WorkspacePolicyE@MIRAL_1.3 1.3.0
 _ZTVN5miral21ActiveOutputsListenerE@MIRAL_1.0 1.0.0
 _ZTVN5miral22WindowManagementPolicyE@MIRAL_1.0 1.0.0
 _ZTVN5miral28CanonicalWindowManagerPolicyE@MIRAL_1.0 1.0.0
