libnet-cpp.so.2 libnet-cpp2 #MINVER#
 _ZN4core3net4http11make_clientEv@Base 0.0.1+14.10.20140611
 _ZN4core3net4http21make_streaming_clientEv@Base 1.1.0+15.04.20150305
 _ZN4core3net4http6Client3delERKNS1_7Request13ConfigurationE@Base 2.1.0+16.10.20160913.2-0ubuntu1
 _ZN4core3net4http6Client4postERKNS1_7Request13ConfigurationERSim@Base 2.1.0+16.10.20160913.2-0ubuntu1
 _ZN4core3net4http6Client6Errors22HttpMethodNotSupportedC1ENS1_6MethodERKNS_8LocationE@Base 0.0.1+14.10.20140611
 _ZN4core3net4http6Client6Errors22HttpMethodNotSupportedC2ENS1_6MethodERKNS_8LocationE@Base 0.0.1+14.10.20140611
 _ZN4core3net4http6Client9post_formERKNS1_7Request13ConfigurationERKSt3mapINSt7__cxx1112basic_stringIcSt11char_traitsIcESaIcEEESD_St4lessISD_ESaISt4pairIKSD_SD_EEE@Base 0.0.1+14.10.20140611
 _ZN4core3net4http6Header16canonicalize_keyERKNSt7__cxx1112basic_stringIcSt11char_traitsIcESaIcEEE@Base 0.0.1+14.10.20140611
 _ZN4core3net4http6Header3addERKNSt7__cxx1112basic_stringIcSt11char_traitsIcESaIcEEESA_@Base 0.0.1+14.10.20140611
 _ZN4core3net4http6Header3setERKNSt7__cxx1112basic_stringIcSt11char_traitsIcESaIcEEESA_@Base 0.0.1+14.10.20140611
 _ZN4core3net4http6Header6removeERKNSt7__cxx1112basic_stringIcSt11char_traitsIcESaIcEEE@Base 0.0.1+14.10.20140611
 _ZN4core3net4http6Header6removeERKNSt7__cxx1112basic_stringIcSt11char_traitsIcESaIcEEESA_@Base 0.0.1+14.10.20140611
 _ZN4core3net4http7Request6Errors13AlreadyActiveC1ERKNS_8LocationE@Base 0.0.1+14.10.20140611
 _ZN4core3net4http7Request6Errors13AlreadyActiveC2ERKNS_8LocationE@Base 0.0.1+14.10.20140611
 _ZN4core3net4http7Request7Handler11on_progressERKSt8functionIFNS2_8Progress4NextERKS5_EE@Base 0.0.1+14.10.20140611
 _ZN4core3net4http7Request7Handler11on_responseERKSt8functionIFvRKNS1_8ResponseEEE@Base 0.0.1+14.10.20140611
 _ZN4core3net4http7Request7Handler8on_errorERKSt8functionIFvRKNS0_5ErrorEEE@Base 0.0.1+14.10.20140611
 _ZN4core3net4httplsERSoNS1_6StatusE@Base 0.0.1+14.10.20140611
 _ZN4core3net8make_uriERKNSt7__cxx1112basic_stringIcSt11char_traitsIcESaIcEEERKSt6vectorIS6_SaIS6_EERKS9_ISt4pairIS6_S6_ESaISF_EE@Base 1.1.0+14.10.20140804
 _ZNK4core3net4http6Client13uri_to_stringB5cxx11ERKNS0_3UriE@Base 1.1.0+14.10.20140804
 _ZNK4core3net4http6Header3hasERKNSt7__cxx1112basic_stringIcSt11char_traitsIcESaIcEEE@Base 0.0.1+14.10.20140611
 _ZNK4core3net4http6Header3hasERKNSt7__cxx1112basic_stringIcSt11char_traitsIcESaIcEEESA_@Base 0.0.1+14.10.20140611
 _ZNK4core3net4http6Header9enumerateERKSt8functionIFvRKNSt7__cxx1112basic_stringIcSt11char_traitsIcESaIcEEERKSt3setIS9_St4lessIS9_ESaIS9_EEEE@Base 0.0.1+14.10.20140611
 _ZNK4core3net4http7Request7Handler11on_progressEv@Base 0.0.1+14.10.20140611
 _ZNK4core3net4http7Request7Handler11on_responseEv@Base 0.0.1+14.10.20140611
 _ZNK4core3net4http7Request7Handler8on_errorEv@Base 0.0.1+14.10.20140611
 _ZTIN4core3net4http16StreamingRequestE@Base 1.1.0+15.04.20150305
 _ZTIN4core3net4http6Client6Errors22HttpMethodNotSupportedE@Base 0.0.1+14.10.20140611
 _ZTIN4core3net4http6ClientE@Base 0.0.1+14.10.20140611
 _ZTIN4core3net4http6HeaderE@Base 0.0.1+14.10.20140611
 _ZTIN4core3net4http7Request6Errors13AlreadyActiveE@Base 0.0.1+14.10.20140611
 _ZTIN4core3net4http7RequestE@Base 0.0.1+14.10.20140611
 _ZTSN4core3net4http16StreamingRequestE@Base 1.1.0+15.04.20150305
 _ZTSN4core3net4http6Client6Errors22HttpMethodNotSupportedE@Base 0.0.1+14.10.20140611
 _ZTSN4core3net4http6ClientE@Base 0.0.1+14.10.20140611
 _ZTSN4core3net4http6HeaderE@Base 0.0.1+14.10.20140611
 _ZTSN4core3net4http7Request6Errors13AlreadyActiveE@Base 0.0.1+14.10.20140611
 _ZTSN4core3net4http7RequestE@Base 0.0.1+14.10.20140611
 _ZTVN4core3net4http6Client6Errors22HttpMethodNotSupportedE@Base 0.0.1+14.10.20140611
 _ZTVN4core3net4http6ClientE@Base 0.0.1+14.10.20140611
 _ZTVN4core3net4http6HeaderE@Base 0.0.1+14.10.20140611
 _ZTVN4core3net4http7Request6Errors13AlreadyActiveE@Base 0.0.1+14.10.20140611
