libprocess-cpp.so.3 libprocess-cpp3 #MINVER#
 _ZN4core5posix10Signalable11send_signalENS0_6SignalERSt10error_code@Base 1.0.0+14.04.20140326.2
 _ZN4core5posix10Signalable20send_signal_or_throwENS0_6SignalE@Base 1.0.0+14.04.20140326.2
 _ZN4core5posix12ChildProcess13DeathObserver28create_once_with_signal_trapESt10shared_ptrINS0_10SignalTrapEE@Base 1.0.0+14.04.20140326.2
 _ZN4core5posix12ChildProcess3cinEv@Base 0.0.1+14.04.20140311
 _ZN4core5posix12ChildProcess4cerrEv@Base 1.0.0+14.04.20140326.2
 _ZN4core5posix12ChildProcess4coutEv@Base 0.0.1+14.04.20140311
 _ZN4core5posix12ChildProcess7invalidEv@Base 0.0.1+14.04.20140311
 _ZN4core5posix12ChildProcess8wait_forERKNS0_4wait5FlagsE@Base 0.0.1+14.04.20140311
 _ZN4core5posix12ChildProcessD0Ev@Base 1.0.0+14.04.20140326.2
 _ZN4core5posix12ChildProcessD1Ev@Base 1.0.0+14.04.20140326.2
 _ZN4core5posix12ChildProcessD2Ev@Base 1.0.0+14.04.20140326.2
 _ZN4core5posix12this_process3cinEv@Base 1.0.0+14.04.20140326.2
 _ZN4core5posix12this_process3env12get_or_throwERKNSt7__cxx1112basic_stringIcSt11char_traitsIcESaIcEEE@Base 1.0.0+14.04.20140326.2
 _ZN4core5posix12this_process3env12set_or_throwERKNSt7__cxx1112basic_stringIcSt11char_traitsIcESaIcEEESA_@Base 1.0.0+14.04.20140326.2
 _ZN4core5posix12this_process3env14unset_or_throwERKNSt7__cxx1112basic_stringIcSt11char_traitsIcESaIcEEE@Base 1.0.0+14.04.20140326.2
 _ZN4core5posix12this_process3env3getERKNSt7__cxx1112basic_stringIcSt11char_traitsIcESaIcEEESA_@Base 1.0.0+14.04.20140326.2
 _ZN4core5posix12this_process3env3setERKNSt7__cxx1112basic_stringIcSt11char_traitsIcESaIcEEESA_RSt10error_code@Base 1.0.0+14.04.20140326.2
 _ZN4core5posix12this_process3env5unsetERKNSt7__cxx1112basic_stringIcSt11char_traitsIcESaIcEEERSt10error_code@Base 1.0.0+14.04.20140326.2
 _ZN4core5posix12this_process3env8for_eachERKSt8functionIFvRKNSt7__cxx1112basic_stringIcSt11char_traitsIcESaIcEEESB_EE@Base 1.0.0+14.04.20140326.2
 _ZN4core5posix12this_process4cerrEv@Base 1.0.0+14.04.20140326.2
 _ZN4core5posix12this_process4coutEv@Base 1.0.0+14.04.20140326.2
 _ZN4core5posix12this_process6parentEv@Base 1.0.0+14.04.20140326.2
 _ZN4core5posix12this_process8instanceEv@Base 1.0.0+14.04.20140326.2
 _ZN4core5posix24trap_signals_for_processESt16initializer_listINS0_6SignalEE@Base 1.0.0+14.04.20140326.2
 _ZN4core5posix39trap_signals_for_all_subsequent_threadsESt16initializer_listINS0_6SignalEE@Base 1.0.0+14.04.20140326.2
 _ZN4core5posix4execERKNSt7__cxx1112basic_stringIcSt11char_traitsIcESaIcEEERKSt6vectorIS6_SaIS6_EERKSt3mapIS6_S6_St4lessIS6_ESaISt4pairIS7_S6_EEERKNS0_14StandardStreamE@Base 0.0.1+14.04.20140311
 _ZN4core5posix4execERKNSt7__cxx1112basic_stringIcSt11char_traitsIcESaIcEEERKSt6vectorIS6_SaIS6_EERKSt3mapIS6_S6_St4lessIS6_ESaISt4pairIS7_S6_EEERKNS0_14StandardStreamERKSt8functionIFvvEE@Base 1.0.1+14.10.20140522
 _ZN4core5posix4forkERKSt8functionIFNS0_4exit6StatusEvEERKNS0_14StandardStreamE@Base 0.0.1+14.04.20140311
 _ZN4core5posix4waitorENS1_5FlagsES2_@Base 1.0.0+14.04.20140326.2
 _ZN4core5posix5linux4proc7process11OomScoreAdj9max_valueEv@Base 1.0.0+14.04.20140326.2
 _ZN4core5posix5linux4proc7process11OomScoreAdj9min_valueEv@Base 1.0.0+14.04.20140326.2
 _ZN4core5posix5linux4proc7process6OomAdj13disable_valueEv@Base 0.0.1+14.04.20140311
 _ZN4core5posix5linux4proc7process6OomAdj9max_valueEv@Base 0.0.1+14.04.20140311
 _ZN4core5posix5linux4proc7process6OomAdj9min_valueEv@Base 0.0.1+14.04.20140311
 _ZN4core5posix5linux4proc7processlsERKNS0_7ProcessERKNS3_11OomScoreAdjE@Base 1.0.0+14.04.20140326.2
 _ZN4core5posix5linux4proc7processlsERKNS0_7ProcessERKNS3_6OomAdjE@Base 0.0.1+14.04.20140311
 _ZN4core5posix5linux4proc7processrsERKNS0_7ProcessERNS3_11OomScoreAdjE@Base 0.0.1+14.04.20140311
 _ZN4core5posix5linux4proc7processrsERKNS0_7ProcessERNS3_4StatE@Base 0.0.1+14.04.20140311
 _ZN4core5posix5linux4proc7processrsERKNS0_7ProcessERNS3_6OomAdjE@Base 1.0.0+14.04.20140326.2
 _ZN4core5posix5linux4proc7processrsERKNS0_7ProcessERNS3_8OomScoreE@Base 1.0.0+14.04.20140326.2
 _ZN4core5posix5vforkERKSt8functionIFNS0_4exit6StatusEvEERKNS0_14StandardStreamE@Base 1.0.0+14.04.20140326.2
 _ZN4core5posix7Process7invalidEv@Base 0.0.1+14.04.20140311
 _ZN4core5posix7ProcessC1Ei@Base 0.0.1+14.04.20140311
 _ZN4core5posix7ProcessC2Ei@Base 0.0.1+14.04.20140311
 _ZN4core5posix7ProcessD0Ev@Base 1.0.0+14.04.20140326.2
 _ZN4core5posix7ProcessD1Ev@Base 1.0.0+14.04.20140326.2
 _ZN4core5posix7ProcessD2Ev@Base 1.0.0+14.04.20140326.2
 _ZN4core5posixanENS0_14StandardStreamES1_@Base 1.0.0+14.04.20140326.2
 _ZN4core5posixorENS0_14StandardStreamES1_@Base 1.0.0+14.04.20140326.2
 _ZN4core7testing12fork_and_runERKSt8functionIFNS_5posix4exit6StatusEvEES8_@Base 1.0.0+14.04.20140326.2
 _ZN4core7testing16CrossProcessSync20try_signal_ready_forERKNSt6chrono8durationIlSt5ratioILl1ELl1000EEEE@Base 0.0.1+14.04.20140311
 _ZN4core7testing16CrossProcessSync25wait_for_signal_ready_forERKNSt6chrono8durationIlSt5ratioILl1ELl1000EEEE@Base 0.0.1+14.04.20140311
 _ZN4core7testing16CrossProcessSyncC1ERKS1_@Base 0.0.1+14.04.20140311
 _ZN4core7testing16CrossProcessSyncC1Ev@Base 1.0.0+14.04.20140326.2
 _ZN4core7testing16CrossProcessSyncC2ERKS1_@Base 0.0.1+14.04.20140311
 _ZN4core7testing16CrossProcessSyncC2Ev@Base 1.0.0+14.04.20140326.2
 _ZN4core7testing16CrossProcessSyncD1Ev@Base 1.0.0+14.04.20140326.2
 _ZN4core7testing16CrossProcessSyncD2Ev@Base 1.0.0+14.04.20140326.2
 _ZN4core7testing16CrossProcessSyncaSERKS1_@Base 0.0.1+14.04.20140311
 _ZN4core7testinganENS0_16ForkAndRunResultES1_@Base 0.0.1+14.04.20140311
 _ZN4core7testingorENS0_16ForkAndRunResultES1_@Base 1.0.0+14.04.20140326.2
 _ZNK4core5posix12ProcessGroup2idEv@Base 1.0.0+14.04.20140326.2
 _ZNK4core5posix7Process13process_groupERSt10error_code@Base 1.0.0+14.04.20140326.2
 _ZNK4core5posix7Process22process_group_or_throwEv@Base 1.0.0+14.04.20140326.2
 _ZNK4core5posix7Process3pidEv@Base 1.0.0+14.04.20140326.2
 _ZTIN4core5posix10SignalTrapE@Base 1.0.0+14.04.20140326.2
 _ZTIN4core5posix10SignalableE@Base 1.0.0+14.04.20140326.2
 _ZTIN4core5posix12ChildProcess13DeathObserverE@Base 0.0.1+14.04.20140311
 _ZTIN4core5posix12ChildProcessE@Base 1.0.0+14.04.20140326.2
 _ZTIN4core5posix12ProcessGroupE@Base 0.0.1+14.04.20140311
 _ZTIN4core5posix7ProcessE@Base 1.0.0+14.04.20140326.2
 _ZTIN4core7testing16CrossProcessSync5Error7TimeoutE@Base 0.0.1+14.04.20140311
 _ZTSN4core5posix10SignalTrapE@Base 1.0.0+14.04.20140326.2
 _ZTSN4core5posix10SignalableE@Base 1.0.0+14.04.20140326.2
 _ZTSN4core5posix12ChildProcess13DeathObserverE@Base 0.0.1+14.04.20140311
 _ZTSN4core5posix12ChildProcessE@Base 1.0.0+14.04.20140326.2
 _ZTSN4core5posix12ProcessGroupE@Base 0.0.1+14.04.20140311
 _ZTSN4core5posix7ProcessE@Base 1.0.0+14.04.20140326.2
 _ZTSN4core7testing16CrossProcessSync5Error7TimeoutE@Base 0.0.1+14.04.20140311
 _ZTVN4core5posix10SignalableE@Base 1.0.0+14.04.20140326.2
 _ZTVN4core5posix12ChildProcessE@Base 1.0.0+14.04.20140326.2
 _ZTVN4core5posix12ProcessGroupE@Base 0.0.1+14.04.20140311
 _ZTVN4core5posix7ProcessE@Base 1.0.0+14.04.20140326.2
 _ZTVN4core7testing16CrossProcessSync5Error7TimeoutE@Base 0.0.1+14.04.20140311
