libthumbnailer-qt.so.1.0 libthumbnailer-qt1.0 #MINVER#
 _ZN5unity11thumbnailer2qt11Thumbnailer11getAlbumArtERK7QStringS5_RK5QSize@Base 2.3+15.10.20150915.1
 _ZN5unity11thumbnailer2qt11Thumbnailer12getArtistArtERK7QStringS5_RK5QSize@Base 2.3+15.10.20150915.1
 _ZN5unity11thumbnailer2qt11Thumbnailer12getThumbnailERK7QStringRK5QSize@Base 2.3+15.10.20150915.1
 _ZN5unity11thumbnailer2qt11ThumbnailerC1ERK15QDBusConnection@Base 2.3+15.10.20150915.1
 _ZN5unity11thumbnailer2qt11ThumbnailerC1Ev@Base 2.3+15.10.20150915.1
 _ZN5unity11thumbnailer2qt11ThumbnailerC2ERK15QDBusConnection@Base 2.3+15.10.20150915.1
 _ZN5unity11thumbnailer2qt11ThumbnailerC2Ev@Base 2.3+15.10.20150915.1
 _ZN5unity11thumbnailer2qt11ThumbnailerD1Ev@Base 2.3+15.10.20150915.1
 _ZN5unity11thumbnailer2qt11ThumbnailerD2Ev@Base 2.3+15.10.20150915.1
 _ZN5unity11thumbnailer2qt7Request11qt_metacallEN11QMetaObject4CallEiPPv@Base 2.3+15.10.20150915.1
 _ZN5unity11thumbnailer2qt7Request11qt_metacastEPKc@Base 2.3+15.10.20150915.1
 _ZN5unity11thumbnailer2qt7Request15waitForFinishedEv@Base 2.3+15.10.20150915.1
 _ZN5unity11thumbnailer2qt7Request16staticMetaObjectE@Base 2.3+15.10.20150915.1
 _ZN5unity11thumbnailer2qt7Request6cancelEv@Base 2.3+15.10.20150915.1
 _ZN5unity11thumbnailer2qt7Request8finishedEv@Base 2.3+15.10.20150915.1
 _ZN5unity11thumbnailer2qt7RequestD0Ev@Base 2.3+15.10.20150915.1
 _ZN5unity11thumbnailer2qt7RequestD1Ev@Base 2.3+15.10.20150915.1
 _ZN5unity11thumbnailer2qt7RequestD2Ev@Base 2.3+15.10.20150915.1
 _ZNK5unity11thumbnailer2qt7Request10isFinishedEv@Base 2.3+15.10.20150915.1
 _ZNK5unity11thumbnailer2qt7Request10metaObjectEv@Base 2.3+15.10.20150915.1
 _ZNK5unity11thumbnailer2qt7Request11isCancelledEv@Base 2.3+16.04.20151102.2
 _ZNK5unity11thumbnailer2qt7Request12errorMessageEv@Base 2.3+15.10.20150915.1
 _ZNK5unity11thumbnailer2qt7Request5imageEv@Base 2.3+15.10.20150915.1
 _ZNK5unity11thumbnailer2qt7Request7isValidEv@Base 2.3+15.10.20150915.1
 _ZTIN5unity11thumbnailer2qt7RequestE@Base 2.3+15.10.20150915.1
 _ZTSN5unity11thumbnailer2qt7RequestE@Base 2.3+15.10.20150915.1
 _ZTVN5unity11thumbnailer2qt7RequestE@Base 2.3+15.10.20150915.1
