libusermetricsinput.so.1 libusermetricsinput1 #MINVER#
 _ZN16UserMetricsInput12MetricUpdateC1EP7QObject@Base 1.0.1
 _ZN16UserMetricsInput12MetricUpdateC2EP7QObject@Base 1.0.1
 _ZN16UserMetricsInput12MetricUpdateD0Ev@Base 1.0.1
 _ZN16UserMetricsInput12MetricUpdateD1Ev@Base 1.0.1
 _ZN16UserMetricsInput12MetricUpdateD2Ev@Base 1.0.1
 _ZN16UserMetricsInput13MetricManager11getInstanceEv@Base 1.0.1
 _ZN16UserMetricsInput13MetricManagerC1EP7QObject@Base 1.0.1
 _ZN16UserMetricsInput13MetricManagerC2EP7QObject@Base 1.0.1
 _ZN16UserMetricsInput13MetricManagerD0Ev@Base 1.0.1
 _ZN16UserMetricsInput13MetricManagerD1Ev@Base 1.0.1
 _ZN16UserMetricsInput13MetricManagerD2Ev@Base 1.0.1
 _ZN16UserMetricsInput16MetricParameters10textDomainERK7QString@Base 1.1.1
 _ZN16UserMetricsInput16MetricParameters12formatStringERK7QString@Base 1.1.1
 _ZN16UserMetricsInput16MetricParameters15emptyDataStringERK7QString@Base 1.1.1
 _ZN16UserMetricsInput16MetricParameters4typeENS_10MetricTypeE@Base 1.1.1
 _ZN16UserMetricsInput16MetricParameters7maximumEd@Base 1.1.1
 _ZN16UserMetricsInput16MetricParameters7minimumEd@Base 1.1.1
 _ZN16UserMetricsInput16MetricParametersC1ERK7QString@Base 1.1.1
 _ZN16UserMetricsInput16MetricParametersC2ERK7QString@Base 1.1.1
 _ZN16UserMetricsInput16MetricParametersD0Ev@Base 1.1.1
 _ZN16UserMetricsInput16MetricParametersD1Ev@Base 1.1.1
 _ZN16UserMetricsInput16MetricParametersD2Ev@Base 1.1.1
 _ZN16UserMetricsInput6MetricC1EP7QObject@Base 1.0.1
 _ZN16UserMetricsInput6MetricC2EP7QObject@Base 1.0.1
 _ZN16UserMetricsInput6MetricD0Ev@Base 1.0.1
 _ZN16UserMetricsInput6MetricD1Ev@Base 1.0.1
 _ZN16UserMetricsInput6MetricD2Ev@Base 1.0.1
 _ZTIN16UserMetricsInput12MetricUpdateE@Base 1.0.1
 _ZTIN16UserMetricsInput13MetricManagerE@Base 1.0.1
 _ZTIN16UserMetricsInput16MetricParametersE@Base 1.1.1
 _ZTIN16UserMetricsInput6MetricE@Base 1.0.1
 _ZTSN16UserMetricsInput12MetricUpdateE@Base 1.0.1
 _ZTSN16UserMetricsInput13MetricManagerE@Base 1.0.1
 _ZTSN16UserMetricsInput16MetricParametersE@Base 1.1.1
 _ZTSN16UserMetricsInput6MetricE@Base 1.0.1
 _ZTVN16UserMetricsInput12MetricUpdateE@Base 1.0.1
 _ZTVN16UserMetricsInput13MetricManagerE@Base 1.0.1
 _ZTVN16UserMetricsInput16MetricParametersE@Base 1.1.1
 _ZTVN16UserMetricsInput6MetricE@Base 1.0.1
 usermetricsinput_metric_increment@Base 1.0.5
 usermetricsinput_metric_update@Base 1.0.1
 usermetricsinput_metric_update_today@Base 1.0.6
 usermetricsinput_metricmanager_add@Base 1.0.1
 usermetricsinput_metricmanager_delete@Base 1.0.1
 usermetricsinput_metricmanager_new@Base 1.0.1
 usermetricsinput_metricparameters_delete@Base 1.1.1
 usermetricsinput_metricparameters_new@Base 1.1.1
 usermetricsinput_metricparameters_set_empty_data_string@Base 1.1.1
 usermetricsinput_metricparameters_set_format_string@Base 1.1.1
 usermetricsinput_metricparameters_set_maximum@Base 1.1.1
 usermetricsinput_metricparameters_set_minimum@Base 1.1.1
 usermetricsinput_metricparameters_set_text_domain@Base 1.1.1
 usermetricsinput_metricparameters_set_type@Base 1.1.1
 usermetricsinput_metricupdate_add_data@Base 1.0.1
 usermetricsinput_metricupdate_add_null@Base 1.0.1
 usermetricsinput_metricupdate_delete@Base 1.0.1
